target datalayout = "e-m:e-p270:32:32-p271:32:32-p272:64:64-i64:64-i128:128-f80:128-n8:16:32:64-S128"
target triple = "x86_64-pc-linux-gnu"

%struct.ASN1_STREAM_ARG_st = type { ptr, ptr, ptr }

; Function Attrs: nounwind uwtable
define internal i32 @pk7_cb(i32 noundef %0, ptr noundef %1, ptr noundef %2, ptr noundef %3) #0 {
  %5 = alloca i32, align 4
  %6 = alloca i32, align 4
  %7 = alloca ptr, align 8
  %8 = alloca ptr, align 8
  %9 = alloca ptr, align 8
  %10 = alloca ptr, align 8
  %11 = alloca ptr, align 8
  %12 = alloca i32, align 4
  store i32 %0, ptr %6, align 4, !tbaa !62
  store ptr %1, ptr %7, align 8, !tbaa !65
  store ptr %2, ptr %8, align 8, !tbaa !67
  store ptr %3, ptr %9, align 8, !tbaa !69
  call void @llvm.lifetime.start.p0(i64 8, ptr %10) #3
  %13 = load ptr, ptr %9, align 8, !tbaa !69
  store ptr %13, ptr %10, align 8, !tbaa !70
  call void @llvm.lifetime.start.p0(i64 8, ptr %11) #3
  %14 = load ptr, ptr %7, align 8, !tbaa !65
  store ptr %14, ptr %11, align 8, !tbaa !3
  %15 = load i32, ptr %6, align 4, !tbaa !62
  switch i32 %15, label %50 [
    i32 10, label %16
    i32 12, label %25
    i32 11, label %40
    i32 13, label %40
  ]

16:                                               ; preds = %4
  %17 = load ptr, ptr %10, align 8, !tbaa !70
  %18 = getelementptr inbounds nuw %struct.ASN1_STREAM_ARG_st, ptr %17, i32 0, i32 2
  %19 = load ptr, ptr %11, align 8, !tbaa !3
  %20 = load ptr, ptr %19, align 8, !tbaa !16
  %21 = call i32 @PKCS7_stream(ptr noundef %18, ptr noundef %20)
  %22 = icmp sle i32 %21, 0
  br i1 %22, label %23, label %24

23:                                               ; preds = %16
  store i32 0, ptr %5, align 4
  store i32 1, ptr %12, align 4
  br label %51

24:                                               ; preds = %16
  br label %25

25:                                               ; preds = %4, %24
  %26 = load ptr, ptr %11, align 8, !tbaa !3
  %27 = load ptr, ptr %26, align 8, !tbaa !16
  %28 = load ptr, ptr %10, align 8, !tbaa !70
  %29 = getelementptr inbounds nuw %struct.ASN1_STREAM_ARG_st, ptr %28, i32 0, i32 0
  %30 = load ptr, ptr %29, align 8, !tbaa !72
  %31 = call ptr @PKCS7_dataInit(ptr noundef %27, ptr noundef %30)
  %32 = load ptr, ptr %10, align 8, !tbaa !70
  %33 = getelementptr inbounds nuw %struct.ASN1_STREAM_ARG_st, ptr %32, i32 0, i32 1
  store ptr %31, ptr %33, align 8, !tbaa !74
  %34 = load ptr, ptr %10, align 8, !tbaa !70
  %35 = getelementptr inbounds nuw %struct.ASN1_STREAM_ARG_st, ptr %34, i32 0, i32 1
  %36 = load ptr, ptr %35, align 8, !tbaa !74
  %37 = icmp ne ptr %36, null
  br i1 %37, label %39, label %38

38:                                               ; preds = %25
  store i32 0, ptr %5, align 4
  store i32 1, ptr %12, align 4
  br label %51

39:                                               ; preds = %25
  br label %50

40:                                               ; preds = %4, %4
  %41 = load ptr, ptr %11, align 8, !tbaa !3
  %42 = load ptr, ptr %41, align 8, !tbaa !16
  %43 = load ptr, ptr %10, align 8, !tbaa !70
  %44 = getelementptr inbounds nuw %struct.ASN1_STREAM_ARG_st, ptr %43, i32 0, i32 1
  %45 = load ptr, ptr %44, align 8, !tbaa !74
  %46 = call i32 @PKCS7_dataFinal(ptr noundef %42, ptr noundef %45)
  %47 = icmp sle i32 %46, 0
  br i1 %47, label %48, label %49

48:                                               ; preds = %40
  store i32 0, ptr %5, align 4
  store i32 1, ptr %12, align 4
  br label %51

49:                                               ; preds = %40
  br label %50

50:                                               ; preds = %4, %49, %39
  store i32 1, ptr %5, align 4
  store i32 1, ptr %12, align 4
  br label %51

51:                                               ; preds = %50, %48, %38, %23
  call void @llvm.lifetime.end.p0(i64 8, ptr %11) #3
  call void @llvm.lifetime.end.p0(i64 8, ptr %10) #3
  %52 = load i32, ptr %5, align 4
  ret i32 %52
}