; Function Attrs: nounwind uwtable
define internal range(i32 0, 2) i32 @pk7_cb(i32 noundef %0, ptr noundef readonly captures(none) %1, ptr readnone captures(none) %2, ptr noundef %3) #1 {
  switch i32 %0, label %21 [
    i32 10, label %5
    i32 12, label %10
    i32 11, label %15
    i32 13, label %15
  ]

5:                                                ; preds = %4
  %6 = getelementptr inbounds nuw i8, ptr %3, i64 16
  %7 = load ptr, ptr %1, align 8, !tbaa !3
  %8 = tail call i32 @PKCS7_stream(ptr noundef nonnull %6, ptr noundef %7) #3
  %9 = icmp slt i32 %8, 1
  br i1 %9, label %22, label %10

10:                                               ; preds = %5, %4
  %11 = load ptr, ptr %1, align 8, !tbaa !3
  %12 = load ptr, ptr %3, align 8, !tbaa !17
  %13 = tail call ptr @PKCS7_dataInit(ptr noundef %11, ptr noundef %12) #3
  %14 = getelementptr inbounds nuw i8, ptr %3, i64 8
  store ptr %13, ptr %14, align 8, !tbaa !21
  %.not = icmp eq ptr %13, null
  br i1 %.not, label %22, label %21

15:                                               ; preds = %4, %4
  %16 = load ptr, ptr %1, align 8, !tbaa !3
  %17 = getelementptr inbounds nuw i8, ptr %3, i64 8
  %18 = load ptr, ptr %17, align 8, !tbaa !21
  %19 = tail call i32 @PKCS7_dataFinal(ptr noundef %16, ptr noundef %18) #3
  %20 = icmp slt i32 %19, 1
  br i1 %20, label %22, label %21

21:                                               ; preds = %15, %10, %4
  br label %22

22:                                               ; preds = %15, %10, %5, %21
  %.0 = phi i32 [ 1, %21 ], [ 0, %5 ], [ 0, %10 ], [ 0, %15 ]
  ret i32 %.0
}